; Function Attrs: nounwind uwtable
define dso_local noundef ptr @list_concat(ptr noundef %0, ptr noundef readonly captures(address_is_null) %1) local_unnamed_addr #0 {
  %3 = icmp eq ptr %0, null
  %4 = icmp eq ptr %1, null
  br i1 %3, label %5, label %30

5:                                                ; preds = %2
  br i1 %4, label %list_copy.exit, label %6

6:                                                ; preds = %5
  %7 = load i32, ptr %1, align 8
  %8 = getelementptr inbounds nuw i8, ptr %1, i64 4
  %9 = load i32, ptr %8, align 4
  %10 = add i32 %9, 3
  %11 = tail call i32 @llvm.smax.i32(i32 %10, i32 8)
  %12 = tail call range(i32 1, 32) i32 @llvm.ctpop.i32(i32 %11)
  %13 = icmp samesign ult i32 %12, 2
  %14 = tail call range(i32 0, 33) i32 @llvm.ctlz.i32(i32 %11, i1 true)
  %15 = xor i32 %14, 31
  %16 = shl nuw i32 2, %15
  %.0.i.i.i = select i1 %13, i32 %11, i32 %16
  %17 = add i32 %.0.i.i.i, -3
  %18 = zext nneg i32 %17 to i64
  %19 = shl nuw nsw i64 %18, 3
  %20 = add nuw nsw i64 %19, 24
  %21 = tail call ptr @palloc(i64 noundef %20) #9
  store i32 %7, ptr %21, align 8
  %22 = getelementptr inbounds nuw i8, ptr %21, i64 4
  store i32 %9, ptr %22, align 4
  %23 = getelementptr inbounds nuw i8, ptr %21, i64 8
  store i32 %17, ptr %23, align 8
  %24 = getelementptr inbounds nuw i8, ptr %21, i64 24
  %25 = getelementptr inbounds nuw i8, ptr %21, i64 16
  store ptr %24, ptr %25, align 8
  %26 = getelementptr inbounds nuw i8, ptr %1, i64 16
  %27 = load ptr, ptr %26, align 8
  %28 = sext i32 %9 to i64
  %29 = shl nsw i64 %28, 3
  tail call void @llvm.memcpy.p0.p0.i64(ptr nonnull align 8 %24, ptr align 8 %27, i64 %29, i1 false)
  br label %list_copy.exit

30:                                               ; preds = %2
  br i1 %4, label %list_copy.exit, label %31

31:                                               ; preds = %30
  %32 = getelementptr inbounds nuw i8, ptr %0, i64 4
  %33 = load i32, ptr %32, align 4
  %34 = getelementptr inbounds nuw i8, ptr %1, i64 4
  %35 = load i32, ptr %34, align 4
  %36 = add i32 %35, %33
  %37 = getelementptr inbounds nuw i8, ptr %0, i64 8
  %38 = load i32, ptr %37, align 8
  %39 = icmp sgt i32 %36, %38
  br i1 %39, label %40, label %63

40:                                               ; preds = %31
  %41 = tail call i32 @llvm.smax.i32(i32 %36, i32 16)
  %42 = tail call range(i32 1, 32) i32 @llvm.ctpop.i32(i32 %41)
  %43 = icmp samesign ult i32 %42, 2
  %44 = tail call range(i32 0, 33) i32 @llvm.ctlz.i32(i32 %41, i1 true)
  %45 = xor i32 %44, 31
  %46 = shl nuw i32 2, %45
  %.0.i.i = select i1 %43, i32 %41, i32 %46
  %47 = getelementptr inbounds nuw i8, ptr %0, i64 16
  %48 = load ptr, ptr %47, align 8
  %49 = getelementptr inbounds nuw i8, ptr %0, i64 24
  %50 = icmp eq ptr %48, %49
  br i1 %50, label %51, label %59

51:                                               ; preds = %40
  %52 = tail call ptr @GetMemoryChunkContext(ptr noundef nonnull %0) #9
  %53 = sext i32 %.0.i.i to i64
  %54 = shl nsw i64 %53, 3
  %55 = tail call ptr @MemoryContextAlloc(ptr noundef %52, i64 noundef %54) #9
  store ptr %55, ptr %47, align 8
  %56 = load i32, ptr %32, align 4
  %57 = sext i32 %56 to i64
  %58 = shl nsw i64 %57, 3
  tail call void @llvm.memcpy.p0.p0.i64(ptr align 8 %55, ptr nonnull align 8 %49, i64 %58, i1 false)
  br label %enlarge_list.exit

59:                                               ; preds = %40
  %60 = sext i32 %.0.i.i to i64
  %61 = shl nsw i64 %60, 3
  %62 = tail call ptr @repalloc(ptr noundef %48, i64 noundef %61) #9
  store ptr %62, ptr %47, align 8
  br label %enlarge_list.exit

enlarge_list.exit:                                ; preds = %51, %59
  store i32 %.0.i.i, ptr %37, align 8
  %.pre = load i32, ptr %32, align 4
  %.pre20 = load i32, ptr %34, align 4
  br label %63

63:                                               ; preds = %enlarge_list.exit, %31
  %64 = phi i32 [ %.pre20, %enlarge_list.exit ], [ %35, %31 ]
  %65 = phi i32 [ %.pre, %enlarge_list.exit ], [ %33, %31 ]
  %66 = getelementptr inbounds nuw i8, ptr %0, i64 16
  %67 = load ptr, ptr %66, align 8
  %68 = sext i32 %65 to i64
  %69 = getelementptr inbounds %union.ListCell, ptr %67, i64 %68
  %70 = getelementptr inbounds nuw i8, ptr %1, i64 16
  %71 = load ptr, ptr %70, align 8
  %72 = sext i32 %64 to i64
  %73 = shl nsw i64 %72, 3
  tail call void @llvm.memcpy.p0.p0.i64(ptr align 8 %69, ptr align 8 %71, i64 %73, i1 false)
  store i32 %36, ptr %32, align 4
  br label %list_copy.exit

list_copy.exit:                                   ; preds = %6, %5, %30, %63
  %.0 = phi ptr [ %0, %63 ], [ %0, %30 ], [ %21, %6 ], [ null, %5 ]
  ret ptr %.0
}